target datalayout = "e-m:e-p270:32:32-p271:32:32-p272:64:64-i64:64-i128:128-f80:128-n8:16:32:64-S128"
target triple = "x86_64-pc-linux-gnu"

%struct.add_p_state = type { %struct.add_i_state, %struct.strbuf, %struct.strbuf, %struct.strbuf, %struct.strbuf, ptr, i64, ptr, ptr }
%struct.add_i_state = type { ptr, i32, [75 x i8], [75 x i8], [75 x i8], [75 x i8], [75 x i8], [75 x i8], [75 x i8], [75 x i8], [75 x i8], i32, ptr, ptr }
%struct.strbuf = type { i64, i64, ptr }

@stdout = external global ptr, align 8
@.str.110 = private unnamed_addr constant [3 x i8] c"%s\00", align 1
@.str.130 = private unnamed_addr constant [4 x i8] c"%s\0A\00", align 1
@.str.131 = private unnamed_addr constant [1 x i8] zeroinitializer, align 1
@sane_ctype = external constant [256 x i8], align 16
@git_gettext_enabled = external global i32, align 4

; Function Attrs: inlinehint nounwind uwtable
define internal i32 @sane_case(i32 noundef %0, i32 noundef %1) #5 {
  %3 = alloca i32, align 4
  %4 = alloca i32, align 4
  store i32 %0, ptr %3, align 4, !tbaa !9
  store i32 %1, ptr %4, align 4, !tbaa !9
  %5 = load i32, ptr %3, align 4, !tbaa !9
  %6 = trunc i32 %5 to i8
  %7 = zext i8 %6 to i64
  %8 = getelementptr inbounds nuw [256 x i8], ptr @sane_ctype, i64 0, i64 %7
  %9 = load i8, ptr %8, align 1, !tbaa !58
  %10 = zext i8 %9 to i32
  %11 = and i32 %10, 4
  %12 = icmp ne i32 %11, 0
  br i1 %12, label %13, label %18

13:                                               ; preds = %2
  %14 = load i32, ptr %3, align 4, !tbaa !9
  %15 = and i32 %14, -33
  %16 = load i32, ptr %4, align 4, !tbaa !9
  %17 = or i32 %15, %16
  store i32 %17, ptr %3, align 4, !tbaa !9
  br label %18

18:                                               ; preds = %13, %2
  %19 = load i32, ptr %3, align 4, !tbaa !9
  ret i32 %19
}

; Function Attrs: nounwind uwtable
define internal i32 @read_single_character(ptr noundef %0) #0 {
  %2 = alloca i32, align 4
  %3 = alloca ptr, align 8
  %4 = alloca i32, align 4
  store ptr %0, ptr %3, align 8, !tbaa !53
  %5 = load ptr, ptr %3, align 8, !tbaa !53
  %6 = getelementptr inbounds nuw %struct.add_p_state, ptr %5, i32 0, i32 0
  %7 = getelementptr inbounds nuw %struct.add_i_state, ptr %6, i32 0, i32 11
  %8 = load i32, ptr %7, align 8, !tbaa !132
  %9 = icmp ne i32 %8, 0
  br i1 %9, label %10, label %26

10:                                               ; preds = %1
  call void @llvm.lifetime.start.p0(i64 4, ptr %4) #10
  %11 = load ptr, ptr %3, align 8, !tbaa !53
  %12 = getelementptr inbounds nuw %struct.add_p_state, ptr %11, i32 0, i32 1
  %13 = call i32 @read_key_without_echo(ptr noundef %12)
  store i32 %13, ptr %4, align 4, !tbaa !9
  %14 = load i32, ptr %4, align 4, !tbaa !9
  %15 = icmp eq i32 %14, -1
  br i1 %15, label %16, label %17

16:                                               ; preds = %10
  br label %22

17:                                               ; preds = %10
  %18 = load ptr, ptr %3, align 8, !tbaa !53
  %19 = getelementptr inbounds nuw %struct.add_p_state, ptr %18, i32 0, i32 1
  %20 = getelementptr inbounds nuw %struct.strbuf, ptr %19, i32 0, i32 2
  %21 = load ptr, ptr %20, align 8, !tbaa !95
  br label %22

22:                                               ; preds = %17, %16
  %23 = phi ptr [ @.str.131, %16 ], [ %21, %17 ]
  %24 = call i32 (ptr, ...) @printf(ptr noundef @.str.130, ptr noundef %23)
  %25 = load i32, ptr %4, align 4, !tbaa !9
  store i32 %25, ptr %2, align 4
  call void @llvm.lifetime.end.p0(i64 4, ptr %4) #10
  br label %33

26:                                               ; preds = %1
  %27 = load ptr, ptr %3, align 8, !tbaa !53
  %28 = getelementptr inbounds nuw %struct.add_p_state, ptr %27, i32 0, i32 1
  %29 = call i32 @git_read_line_interactively(ptr noundef %28)
  %30 = icmp eq i32 %29, -1
  br i1 %30, label %31, label %32

31:                                               ; preds = %26
  store i32 -1, ptr %2, align 4
  br label %33

32:                                               ; preds = %26
  store i32 0, ptr %2, align 4
  br label %33

33:                                               ; preds = %32, %31, %22
  %34 = load i32, ptr %2, align 4
  ret i32 %34
}

; Function Attrs: inlinehint nounwind uwtable
define internal ptr @_(ptr noundef %0) #5 {
  %2 = alloca ptr, align 8
  %3 = alloca ptr, align 8
  store ptr %0, ptr %3, align 8, !tbaa !11
  %4 = load ptr, ptr %3, align 8, !tbaa !11
  %5 = load i8, ptr %4, align 1, !tbaa !58
  %6 = icmp ne i8 %5, 0
  br i1 %6, label %8, label %7

7:                                                ; preds = %1
  store ptr @.str.131, ptr %2, align 8
  br label %16

8:                                                ; preds = %1
  %9 = load i32, ptr @git_gettext_enabled, align 4, !tbaa !9
  %10 = icmp ne i32 %9, 0
  br i1 %10, label %13, label %11

11:                                               ; preds = %8
  %12 = load ptr, ptr %3, align 8, !tbaa !11
  store ptr %12, ptr %2, align 8
  br label %16

13:                                               ; preds = %8
  %14 = load ptr, ptr %3, align 8, !tbaa !11
  %15 = call ptr @dcgettext(ptr noundef null, ptr noundef %14, i32 noundef 5) #10
  store ptr %15, ptr %2, align 8
  br label %16

16:                                               ; preds = %13, %11, %7
  %17 = load ptr, ptr %2, align 8
  ret ptr %17
}

; Function Attrs: nounwind uwtable
define internal i32 @prompt_yesno(ptr noundef %0, ptr noundef %1) #0 {
  %3 = alloca i32, align 4
  %4 = alloca ptr, align 8
  %5 = alloca ptr, align 8
  store ptr %0, ptr %4, align 8, !tbaa !53
  store ptr %1, ptr %5, align 8, !tbaa !11
  br label %6

6:                                                ; preds = %32, %2
  %7 = load ptr, ptr @stdout, align 8, !tbaa !89
  %8 = load ptr, ptr %4, align 8, !tbaa !53
  %9 = getelementptr inbounds nuw %struct.add_p_state, ptr %8, i32 0, i32 0
  %10 = getelementptr inbounds nuw %struct.add_i_state, ptr %9, i32 0, i32 4
  %11 = getelementptr inbounds [75 x i8], ptr %10, i64 0, i64 0
  %12 = load ptr, ptr %5, align 8, !tbaa !11
  %13 = call ptr @_(ptr noundef %12)
  %14 = call i32 (ptr, ptr, ptr, ...) @color_fprintf(ptr noundef %7, ptr noundef %11, ptr noundef @.str.110, ptr noundef %13)
  %15 = load ptr, ptr @stdout, align 8, !tbaa !89
  %16 = call i32 @fflush(ptr noundef %15)
  %17 = load ptr, ptr %4, align 8, !tbaa !53
  %18 = call i32 @read_single_character(ptr noundef %17)
  %19 = icmp eq i32 %18, -1
  br i1 %19, label %20, label %21

20:                                               ; preds = %6
  store i32 -1, ptr %3, align 4
  br label %33

21:                                               ; preds = %6
  %22 = load ptr, ptr %4, align 8, !tbaa !53
  %23 = getelementptr inbounds nuw %struct.add_p_state, ptr %22, i32 0, i32 1
  %24 = getelementptr inbounds nuw %struct.strbuf, ptr %23, i32 0, i32 2
  %25 = load ptr, ptr %24, align 8, !tbaa !95
  %26 = getelementptr inbounds i8, ptr %25, i64 0
  %27 = load i8, ptr %26, align 1, !tbaa !58
  %28 = zext i8 %27 to i32
  %29 = call i32 @sane_case(i32 noundef %28, i32 noundef 32)
  switch i32 %29, label %32 [
    i32 110, label %30
    i32 121, label %31
  ]

30:                                               ; preds = %21
  store i32 0, ptr %3, align 4
  br label %33

31:                                               ; preds = %21
  store i32 1, ptr %3, align 4
  br label %33

32:                                               ; preds = %21
  br label %6

33:                                               ; preds = %31, %30, %20
  %34 = load i32, ptr %3, align 4
  ret i32 %34
}