; Function Attrs: nounwind uwtable
define internal fastcc range(i32 -1, 2) i32 @prompt_yesno(ptr noundef nonnull %0, ptr noundef %1) unnamed_addr #0 {
  %3 = getelementptr inbounds nuw i8, ptr %0, i64 162
  %4 = getelementptr inbounds nuw i8, ptr %0, i64 688
  %5 = getelementptr inbounds nuw i8, ptr %0, i64 712
  %6 = getelementptr inbounds nuw i8, ptr %0, i64 728
  br label %7

7:                                                ; preds = %27, %2
  %8 = load ptr, ptr @stdout, align 8, !tbaa !83
  %9 = load i8, ptr %1, align 1, !tbaa !57
  %.not.i = icmp eq i8 %9, 0
  br i1 %.not.i, label %_.exit, label %10

10:                                               ; preds = %7
  %11 = load i32, ptr @git_gettext_enabled, align 4, !tbaa !55
  %.not4.i = icmp eq i32 %11, 0
  br i1 %.not4.i, label %_.exit, label %12

12:                                               ; preds = %10
  %13 = tail call ptr @dcgettext(ptr noundef null, ptr noundef nonnull %1, i32 noundef 5) #17
  br label %_.exit

_.exit:                                           ; preds = %7, %10, %12
  %.0.i = phi ptr [ %13, %12 ], [ @.str.131, %7 ], [ %1, %10 ]
  %14 = tail call i32 (ptr, ptr, ptr, ...) @color_fprintf(ptr noundef %8, ptr noundef nonnull %3, ptr noundef nonnull @.str.110, ptr noundef %.0.i) #17
  %15 = load ptr, ptr @stdout, align 8, !tbaa !83
  %16 = tail call i32 @fflush(ptr noundef %15)
  %17 = load i32, ptr %4, align 8, !tbaa !87
  %.not.i4 = icmp eq i32 %17, 0
  br i1 %.not.i4, label %25, label %18

18:                                               ; preds = %_.exit
  %19 = tail call i32 @read_key_without_echo(ptr noundef nonnull %5) #17
  %20 = icmp eq i32 %19, -1
  br i1 %20, label %23, label %21

21:                                               ; preds = %18
  %22 = load ptr, ptr %6, align 8, !tbaa !89
  br label %23

23:                                               ; preds = %21, %18
  %24 = phi ptr [ %22, %21 ], [ @.str.131, %18 ]
  %puts.i = tail call i32 @puts(ptr nonnull dereferenceable(1) %24)
  br label %read_single_character.exit

25:                                               ; preds = %_.exit
  %26 = tail call i32 @git_read_line_interactively(ptr noundef nonnull %5) #17
  br label %read_single_character.exit

read_single_character.exit:                       ; preds = %23, %25
  %.0.i5.in = phi i32 [ %19, %23 ], [ %26, %25 ]
  %.0.i5 = icmp eq i32 %.0.i5.in, -1
  br i1 %.0.i5, label %.loopexit, label %27

27:                                               ; preds = %read_single_character.exit
  %28 = load ptr, ptr %6, align 8, !tbaa !89
  %29 = load i8, ptr %28, align 1, !tbaa !57
  %30 = zext i8 %29 to i64
  %31 = getelementptr inbounds nuw [256 x i8], ptr @sane_ctype, i64 0, i64 %30
  %32 = load i8, ptr %31, align 1, !tbaa !57
  %33 = shl i8 %32, 3
  %34 = and i8 %33, 32
  %spec.select.i6 = or i8 %34, %29
  switch i8 %spec.select.i6, label %7 [
    i8 110, label %.loopexit.loopexit
    i8 121, label %.loopexit
  ]

.loopexit.loopexit:                               ; preds = %27
  br label %.loopexit

.loopexit:                                        ; preds = %read_single_character.exit, %27, %.loopexit.loopexit
  %.0 = phi i32 [ 1, %27 ], [ -1, %read_single_character.exit ], [ 0, %.loopexit.loopexit ]
  ret i32 %.0
}